target datalayout = "e-m:e-p270:32:32-p271:32:32-p272:64:64-i64:64-i128:128-f80:128-n8:16:32:64-S128"
target triple = "x86_64-pc-linux-gnu"

@hf_gsm_a_spare_bits = external global i32, align 4
@hf_gsm_a_gm_nsapi_5_ul_stat = internal global i32 0, align 4
@hf_gsm_a_gm_nsapi_6_ul_stat = internal global i32 0, align 4
@hf_gsm_a_gm_nsapi_7_ul_stat = internal global i32 0, align 4
@hf_gsm_a_gm_nsapi_8_ul_stat = internal global i32 0, align 4
@hf_gsm_a_gm_nsapi_9_ul_stat = internal global i32 0, align 4
@hf_gsm_a_gm_nsapi_10_ul_stat = internal global i32 0, align 4
@hf_gsm_a_gm_nsapi_11_ul_stat = internal global i32 0, align 4
@hf_gsm_a_gm_nsapi_12_ul_stat = internal global i32 0, align 4
@hf_gsm_a_gm_nsapi_13_ul_stat = internal global i32 0, align 4
@hf_gsm_a_gm_nsapi_14_ul_stat = internal global i32 0, align 4
@hf_gsm_a_gm_nsapi_15_ul_stat = internal global i32 0, align 4

; Function Attrs: null_pointer_is_valid sspstrong uwtable
define internal zeroext i16 @de_gc_uplink_data_stat(ptr noundef %0, ptr noundef %1, ptr noundef %2, i32 noundef %3, i32 noundef %4, ptr noundef %5, i32 noundef %6) #1 {
  %8 = alloca ptr, align 8
  %9 = alloca ptr, align 8
  %10 = alloca ptr, align 8
  %11 = alloca i32, align 4
  %12 = alloca i32, align 4
  %13 = alloca ptr, align 8
  %14 = alloca i32, align 4
  %15 = alloca i32, align 4
  %16 = alloca i32, align 4
  store ptr %0, ptr %8, align 8
  store ptr %1, ptr %9, align 8
  store ptr %2, ptr %10, align 8
  store i32 %3, ptr %11, align 4
  store i32 %4, ptr %12, align 4
  store ptr %5, ptr %13, align 8
  store i32 %6, ptr %14, align 4
  call void @llvm.lifetime.start.p0(i64 4, ptr %15) #6
  call void @llvm.lifetime.start.p0(i64 4, ptr %16) #6
  %17 = load i32, ptr %11, align 4
  store i32 %17, ptr %15, align 4
  %18 = load i32, ptr %15, align 4
  %19 = shl i32 %18, 3
  store i32 %19, ptr %16, align 4
  %20 = load ptr, ptr %9, align 8
  %21 = load i32, ptr @hf_gsm_a_gm_nsapi_7_ul_stat, align 4
  %22 = load ptr, ptr %8, align 8
  %23 = load i32, ptr %16, align 4
  %24 = call ptr @proto_tree_add_bits_item(ptr noundef %20, i32 noundef %21, ptr noundef %22, i32 noundef %23, i32 noundef 1, i32 noundef 0)
  %25 = load i32, ptr %16, align 4
  %26 = add i32 %25, 1
  store i32 %26, ptr %16, align 4
  %27 = load ptr, ptr %9, align 8
  %28 = load i32, ptr @hf_gsm_a_gm_nsapi_6_ul_stat, align 4
  %29 = load ptr, ptr %8, align 8
  %30 = load i32, ptr %16, align 4
  %31 = call ptr @proto_tree_add_bits_item(ptr noundef %27, i32 noundef %28, ptr noundef %29, i32 noundef %30, i32 noundef 1, i32 noundef 0)
  %32 = load i32, ptr %16, align 4
  %33 = add i32 %32, 1
  store i32 %33, ptr %16, align 4
  %34 = load ptr, ptr %9, align 8
  %35 = load i32, ptr @hf_gsm_a_gm_nsapi_5_ul_stat, align 4
  %36 = load ptr, ptr %8, align 8
  %37 = load i32, ptr %16, align 4
  %38 = call ptr @proto_tree_add_bits_item(ptr noundef %34, i32 noundef %35, ptr noundef %36, i32 noundef %37, i32 noundef 1, i32 noundef 0)
  %39 = load i32, ptr %16, align 4
  %40 = add i32 %39, 1
  store i32 %40, ptr %16, align 4
  %41 = load ptr, ptr %9, align 8
  %42 = load i32, ptr @hf_gsm_a_spare_bits, align 4
  %43 = load ptr, ptr %8, align 8
  %44 = load i32, ptr %16, align 4
  %45 = call ptr @proto_tree_add_bits_item(ptr noundef %41, i32 noundef %42, ptr noundef %43, i32 noundef %44, i32 noundef 5, i32 noundef 0)
  %46 = load i32, ptr %16, align 4
  %47 = add i32 %46, 5
  store i32 %47, ptr %16, align 4
  %48 = load i32, ptr %15, align 4
  %49 = add i32 %48, 1
  store i32 %49, ptr %15, align 4
  %50 = load ptr, ptr %9, align 8
  %51 = load i32, ptr @hf_gsm_a_gm_nsapi_15_ul_stat, align 4
  %52 = load ptr, ptr %8, align 8
  %53 = load i32, ptr %16, align 4
  %54 = call ptr @proto_tree_add_bits_item(ptr noundef %50, i32 noundef %51, ptr noundef %52, i32 noundef %53, i32 noundef 1, i32 noundef 0)
  %55 = load i32, ptr %16, align 4
  %56 = add i32 %55, 1
  store i32 %56, ptr %16, align 4
  %57 = load ptr, ptr %9, align 8
  %58 = load i32, ptr @hf_gsm_a_gm_nsapi_14_ul_stat, align 4
  %59 = load ptr, ptr %8, align 8
  %60 = load i32, ptr %16, align 4
  %61 = call ptr @proto_tree_add_bits_item(ptr noundef %57, i32 noundef %58, ptr noundef %59, i32 noundef %60, i32 noundef 1, i32 noundef 0)
  %62 = load i32, ptr %16, align 4
  %63 = add i32 %62, 1
  store i32 %63, ptr %16, align 4
  %64 = load ptr, ptr %9, align 8
  %65 = load i32, ptr @hf_gsm_a_gm_nsapi_13_ul_stat, align 4
  %66 = load ptr, ptr %8, align 8
  %67 = load i32, ptr %16, align 4
  %68 = call ptr @proto_tree_add_bits_item(ptr noundef %64, i32 noundef %65, ptr noundef %66, i32 noundef %67, i32 noundef 1, i32 noundef 0)
  %69 = load i32, ptr %16, align 4
  %70 = add i32 %69, 1
  store i32 %70, ptr %16, align 4
  %71 = load ptr, ptr %9, align 8
  %72 = load i32, ptr @hf_gsm_a_gm_nsapi_12_ul_stat, align 4
  %73 = load ptr, ptr %8, align 8
  %74 = load i32, ptr %16, align 4
  %75 = call ptr @proto_tree_add_bits_item(ptr noundef %71, i32 noundef %72, ptr noundef %73, i32 noundef %74, i32 noundef 1, i32 noundef 0)
  %76 = load i32, ptr %16, align 4
  %77 = add i32 %76, 1
  store i32 %77, ptr %16, align 4
  %78 = load ptr, ptr %9, align 8
  %79 = load i32, ptr @hf_gsm_a_gm_nsapi_11_ul_stat, align 4
  %80 = load ptr, ptr %8, align 8
  %81 = load i32, ptr %16, align 4
  %82 = call ptr @proto_tree_add_bits_item(ptr noundef %78, i32 noundef %79, ptr noundef %80, i32 noundef %81, i32 noundef 1, i32 noundef 0)
  %83 = load i32, ptr %16, align 4
  %84 = add i32 %83, 1
  store i32 %84, ptr %16, align 4
  %85 = load ptr, ptr %9, align 8
  %86 = load i32, ptr @hf_gsm_a_gm_nsapi_10_ul_stat, align 4
  %87 = load ptr, ptr %8, align 8
  %88 = load i32, ptr %16, align 4
  %89 = call ptr @proto_tree_add_bits_item(ptr noundef %85, i32 noundef %86, ptr noundef %87, i32 noundef %88, i32 noundef 1, i32 noundef 0)
  %90 = load i32, ptr %16, align 4
  %91 = add i32 %90, 1
  store i32 %91, ptr %16, align 4
  %92 = load ptr, ptr %9, align 8
  %93 = load i32, ptr @hf_gsm_a_gm_nsapi_9_ul_stat, align 4
  %94 = load ptr, ptr %8, align 8
  %95 = load i32, ptr %16, align 4
  %96 = call ptr @proto_tree_add_bits_item(ptr noundef %92, i32 noundef %93, ptr noundef %94, i32 noundef %95, i32 noundef 1, i32 noundef 0)
  %97 = load i32, ptr %16, align 4
  %98 = add i32 %97, 1
  store i32 %98, ptr %16, align 4
  %99 = load ptr, ptr %9, align 8
  %100 = load i32, ptr @hf_gsm_a_gm_nsapi_8_ul_stat, align 4
  %101 = load ptr, ptr %8, align 8
  %102 = load i32, ptr %16, align 4
  %103 = call ptr @proto_tree_add_bits_item(ptr noundef %99, i32 noundef %100, ptr noundef %101, i32 noundef %102, i32 noundef 1, i32 noundef 0)
  %104 = load i32, ptr %12, align 4
  %105 = trunc i32 %104 to i16
  call void @llvm.lifetime.end.p0(i64 4, ptr %16) #6
  call void @llvm.lifetime.end.p0(i64 4, ptr %15) #6
  ret i16 %105
}