; Function Attrs: null_pointer_is_valid sspstrong uwtable
define internal noundef zeroext i16 @de_gc_uplink_data_stat(ptr noundef %0, ptr noundef %1, ptr readnone captures(none) %2, i32 noundef %3, i32 noundef %4, ptr readnone captures(none) %5, i32 %6) #1 {
  %8 = shl i32 %3, 3
  %9 = load i32, ptr @hf_gsm_a_gm_nsapi_7_ul_stat, align 4
  %10 = tail call ptr @proto_tree_add_bits_item(ptr noundef %1, i32 noundef %9, ptr noundef %0, i32 noundef %8, i32 noundef 1, i32 noundef 0)
  %11 = or disjoint i32 %8, 1
  %12 = load i32, ptr @hf_gsm_a_gm_nsapi_6_ul_stat, align 4
  %13 = tail call ptr @proto_tree_add_bits_item(ptr noundef %1, i32 noundef %12, ptr noundef %0, i32 noundef %11, i32 noundef 1, i32 noundef 0)
  %14 = or disjoint i32 %8, 2
  %15 = load i32, ptr @hf_gsm_a_gm_nsapi_5_ul_stat, align 4
  %16 = tail call ptr @proto_tree_add_bits_item(ptr noundef %1, i32 noundef %15, ptr noundef %0, i32 noundef %14, i32 noundef 1, i32 noundef 0)
  %17 = or disjoint i32 %8, 3
  %18 = load i32, ptr @hf_gsm_a_spare_bits, align 4
  %19 = tail call ptr @proto_tree_add_bits_item(ptr noundef %1, i32 noundef %18, ptr noundef %0, i32 noundef %17, i32 noundef 5, i32 noundef 0)
  %20 = add i32 %8, 8
  %21 = load i32, ptr @hf_gsm_a_gm_nsapi_15_ul_stat, align 4
  %22 = tail call ptr @proto_tree_add_bits_item(ptr noundef %1, i32 noundef %21, ptr noundef %0, i32 noundef %20, i32 noundef 1, i32 noundef 0)
  %23 = add i32 %8, 9
  %24 = load i32, ptr @hf_gsm_a_gm_nsapi_14_ul_stat, align 4
  %25 = tail call ptr @proto_tree_add_bits_item(ptr noundef %1, i32 noundef %24, ptr noundef %0, i32 noundef %23, i32 noundef 1, i32 noundef 0)
  %26 = add i32 %8, 10
  %27 = load i32, ptr @hf_gsm_a_gm_nsapi_13_ul_stat, align 4
  %28 = tail call ptr @proto_tree_add_bits_item(ptr noundef %1, i32 noundef %27, ptr noundef %0, i32 noundef %26, i32 noundef 1, i32 noundef 0)
  %29 = add i32 %8, 11
  %30 = load i32, ptr @hf_gsm_a_gm_nsapi_12_ul_stat, align 4
  %31 = tail call ptr @proto_tree_add_bits_item(ptr noundef %1, i32 noundef %30, ptr noundef %0, i32 noundef %29, i32 noundef 1, i32 noundef 0)
  %32 = add i32 %8, 12
  %33 = load i32, ptr @hf_gsm_a_gm_nsapi_11_ul_stat, align 4
  %34 = tail call ptr @proto_tree_add_bits_item(ptr noundef %1, i32 noundef %33, ptr noundef %0, i32 noundef %32, i32 noundef 1, i32 noundef 0)
  %35 = add i32 %8, 13
  %36 = load i32, ptr @hf_gsm_a_gm_nsapi_10_ul_stat, align 4
  %37 = tail call ptr @proto_tree_add_bits_item(ptr noundef %1, i32 noundef %36, ptr noundef %0, i32 noundef %35, i32 noundef 1, i32 noundef 0)
  %38 = add i32 %8, 14
  %39 = load i32, ptr @hf_gsm_a_gm_nsapi_9_ul_stat, align 4
  %40 = tail call ptr @proto_tree_add_bits_item(ptr noundef %1, i32 noundef %39, ptr noundef %0, i32 noundef %38, i32 noundef 1, i32 noundef 0)
  %41 = add i32 %8, 15
  %42 = load i32, ptr @hf_gsm_a_gm_nsapi_8_ul_stat, align 4
  %43 = tail call ptr @proto_tree_add_bits_item(ptr noundef %1, i32 noundef %42, ptr noundef %0, i32 noundef %41, i32 noundef 1, i32 noundef 0)
  %44 = trunc i32 %4 to i16
  ret i16 %44
}